target datalayout = "e-m:e-p270:32:32-p271:32:32-p272:64:64-i64:64-i128:128-f80:128-n8:16:32:64-S128"
target triple = "x86_64-pc-linux-gnu"

%struct.evp_encode_ctx_st = type { i32, i32, [80 x i8], i32, i32 }

@.str.5 = private unnamed_addr constant [2 x i8] c"\0A\00", align 1
@.str.8 = private unnamed_addr constant [124 x i8] c"generated/home/dtcxzyw/WorkSpace/Projects/compilers/llvm-opt-benchmark/bench/libquic/libquic/boringssl/crypto/pem/pem_lib.c\00", align 1
@.str.11 = private unnamed_addr constant [12 x i8] c"-----BEGIN \00", align 1
@.str.12 = private unnamed_addr constant [7 x i8] c"-----\0A\00", align 1
@.str.13 = private unnamed_addr constant [10 x i8] c"-----END \00", align 1

; Function Attrs: nounwind uwtable
define hidden i32 @PEM_write_bio(ptr noundef %0, ptr noundef %1, ptr noundef %2, ptr noundef %3, i64 noundef %4) #0 {
  %6 = alloca i32, align 4
  %7 = alloca ptr, align 8
  %8 = alloca ptr, align 8
  %9 = alloca ptr, align 8
  %10 = alloca ptr, align 8
  %11 = alloca i64, align 8
  %12 = alloca i32, align 4
  %13 = alloca i32, align 4
  %14 = alloca i32, align 4
  %15 = alloca i32, align 4
  %16 = alloca i32, align 4
  %17 = alloca ptr, align 8
  %18 = alloca %struct.evp_encode_ctx_st, align 4
  %19 = alloca i32, align 4
  %20 = alloca i32, align 4
  store ptr %0, ptr %7, align 8, !tbaa !21
  store ptr %1, ptr %8, align 8, !tbaa !6
  store ptr %2, ptr %9, align 8, !tbaa !6
  store ptr %3, ptr %10, align 8, !tbaa !6
  store i64 %4, ptr %11, align 8, !tbaa !13
  call void @llvm.lifetime.start.p0(i64 4, ptr %12) #7
  call void @llvm.lifetime.start.p0(i64 4, ptr %13) #7
  call void @llvm.lifetime.start.p0(i64 4, ptr %14) #7
  call void @llvm.lifetime.start.p0(i64 4, ptr %15) #7
  call void @llvm.lifetime.start.p0(i64 4, ptr %16) #7
  call void @llvm.lifetime.start.p0(i64 8, ptr %17) #7
  store ptr null, ptr %17, align 8, !tbaa !6
  call void @llvm.lifetime.start.p0(i64 96, ptr %18) #7
  call void @llvm.lifetime.start.p0(i64 4, ptr %19) #7
  store i32 7, ptr %19, align 4, !tbaa !11
  call void @EVP_EncodeInit(ptr noundef %18)
  %21 = load ptr, ptr %8, align 8, !tbaa !6
  %22 = call i64 @strlen(ptr noundef %21) #8
  %23 = trunc i64 %22 to i32
  store i32 %23, ptr %12, align 4, !tbaa !11
  %24 = load ptr, ptr %7, align 8, !tbaa !21
  %25 = call i32 @BIO_write(ptr noundef %24, ptr noundef @.str.11, i32 noundef 11)
  %26 = icmp ne i32 %25, 11
  br i1 %26, label %38, label %27

27:                                               ; preds = %5
  %28 = load ptr, ptr %7, align 8, !tbaa !21
  %29 = load ptr, ptr %8, align 8, !tbaa !6
  %30 = load i32, ptr %12, align 4, !tbaa !11
  %31 = call i32 @BIO_write(ptr noundef %28, ptr noundef %29, i32 noundef %30)
  %32 = load i32, ptr %12, align 4, !tbaa !11
  %33 = icmp ne i32 %31, %32
  br i1 %33, label %38, label %34

34:                                               ; preds = %27
  %35 = load ptr, ptr %7, align 8, !tbaa !21
  %36 = call i32 @BIO_write(ptr noundef %35, ptr noundef @.str.12, i32 noundef 6)
  %37 = icmp ne i32 %36, 6
  br i1 %37, label %38, label %39

38:                                               ; preds = %34, %27, %5
  br label %138

39:                                               ; preds = %34
  %40 = load ptr, ptr %9, align 8, !tbaa !6
  %41 = call i64 @strlen(ptr noundef %40) #8
  %42 = trunc i64 %41 to i32
  store i32 %42, ptr %14, align 4, !tbaa !11
  %43 = load i32, ptr %14, align 4, !tbaa !11
  %44 = icmp sgt i32 %43, 0
  br i1 %44, label %45, label %58

45:                                               ; preds = %39
  %46 = load ptr, ptr %7, align 8, !tbaa !21
  %47 = load ptr, ptr %9, align 8, !tbaa !6
  %48 = load i32, ptr %14, align 4, !tbaa !11
  %49 = call i32 @BIO_write(ptr noundef %46, ptr noundef %47, i32 noundef %48)
  %50 = load i32, ptr %14, align 4, !tbaa !11
  %51 = icmp ne i32 %49, %50
  br i1 %51, label %56, label %52

52:                                               ; preds = %45
  %53 = load ptr, ptr %7, align 8, !tbaa !21
  %54 = call i32 @BIO_write(ptr noundef %53, ptr noundef @.str.5, i32 noundef 1)
  %55 = icmp ne i32 %54, 1
  br i1 %55, label %56, label %57

56:                                               ; preds = %52, %45
  br label %138

57:                                               ; preds = %52
  br label %58

58:                                               ; preds = %57, %39
  %59 = call noalias ptr @malloc(i64 noundef 8192) #9
  store ptr %59, ptr %17, align 8, !tbaa !6
  %60 = load ptr, ptr %17, align 8, !tbaa !6
  %61 = icmp eq ptr %60, null
  br i1 %61, label %62, label %63

62:                                               ; preds = %58
  store i32 65, ptr %19, align 4, !tbaa !11
  br label %138

63:                                               ; preds = %58
  store i32 0, ptr %15, align 4, !tbaa !11
  store i32 0, ptr %14, align 4, !tbaa !11
  br label %64

64:                                               ; preds = %93, %63
  %65 = load i64, ptr %11, align 8, !tbaa !13
  %66 = icmp sgt i64 %65, 0
  br i1 %66, label %67, label %104

67:                                               ; preds = %64
  %68 = load i64, ptr %11, align 8, !tbaa !13
  %69 = icmp sgt i64 %68, 5120
  br i1 %69, label %70, label %71

70:                                               ; preds = %67
  br label %73

71:                                               ; preds = %67
  %72 = load i64, ptr %11, align 8, !tbaa !13
  br label %73

73:                                               ; preds = %71, %70
  %74 = phi i64 [ 5120, %70 ], [ %72, %71 ]
  %75 = trunc i64 %74 to i32
  store i32 %75, ptr %13, align 4, !tbaa !11
  %76 = load ptr, ptr %17, align 8, !tbaa !6
  %77 = load ptr, ptr %10, align 8, !tbaa !6
  %78 = load i32, ptr %15, align 4, !tbaa !11
  %79 = sext i32 %78 to i64
  %80 = getelementptr inbounds i8, ptr %77, i64 %79
  %81 = load i32, ptr %13, align 4, !tbaa !11
  %82 = sext i32 %81 to i64
  call void @EVP_EncodeUpdate(ptr noundef %18, ptr noundef %76, ptr noundef %16, ptr noundef %80, i64 noundef %82)
  %83 = load i32, ptr %16, align 4, !tbaa !11
  %84 = icmp ne i32 %83, 0
  br i1 %84, label %85, label %93

85:                                               ; preds = %73
  %86 = load ptr, ptr %7, align 8, !tbaa !21
  %87 = load ptr, ptr %17, align 8, !tbaa !6
  %88 = load i32, ptr %16, align 4, !tbaa !11
  %89 = call i32 @BIO_write(ptr noundef %86, ptr noundef %87, i32 noundef %88)
  %90 = load i32, ptr %16, align 4, !tbaa !11
  %91 = icmp ne i32 %89, %90
  br i1 %91, label %92, label %93

92:                                               ; preds = %85
  br label %138

93:                                               ; preds = %85, %73
  %94 = load i32, ptr %16, align 4, !tbaa !11
  %95 = load i32, ptr %14, align 4, !tbaa !11
  %96 = add nsw i32 %95, %94
  store i32 %96, ptr %14, align 4, !tbaa !11
  %97 = load i32, ptr %13, align 4, !tbaa !11
  %98 = sext i32 %97 to i64
  %99 = load i64, ptr %11, align 8, !tbaa !13
  %100 = sub nsw i64 %99, %98
  store i64 %100, ptr %11, align 8, !tbaa !13
  %101 = load i32, ptr %13, align 4, !tbaa !11
  %102 = load i32, ptr %15, align 4, !tbaa !11
  %103 = add nsw i32 %102, %101
  store i32 %103, ptr %15, align 4, !tbaa !11
  br label %64, !llvm.loop !42

104:                                              ; preds = %64
  %105 = load ptr, ptr %17, align 8, !tbaa !6
  call void @EVP_EncodeFinal(ptr noundef %18, ptr noundef %105, ptr noundef %16)
  %106 = load i32, ptr %16, align 4, !tbaa !11
  %107 = icmp sgt i32 %106, 0
  br i1 %107, label %108, label %116

108:                                              ; preds = %104
  %109 = load ptr, ptr %7, align 8, !tbaa !21
  %110 = load ptr, ptr %17, align 8, !tbaa !6
  %111 = load i32, ptr %16, align 4, !tbaa !11
  %112 = call i32 @BIO_write(ptr noundef %109, ptr noundef %110, i32 noundef %111)
  %113 = load i32, ptr %16, align 4, !tbaa !11
  %114 = icmp ne i32 %112, %113
  br i1 %114, label %115, label %116

115:                                              ; preds = %108
  br label %138

116:                                              ; preds = %108, %104
  %117 = load ptr, ptr %17, align 8, !tbaa !6
  call void @OPENSSL_cleanse(ptr noundef %117, i64 noundef 8192)
  %118 = load ptr, ptr %17, align 8, !tbaa !6
  call void @free(ptr noundef %118) #7
  store ptr null, ptr %17, align 8, !tbaa !6
  %119 = load ptr, ptr %7, align 8, !tbaa !21
  %120 = call i32 @BIO_write(ptr noundef %119, ptr noundef @.str.13, i32 noundef 9)
  %121 = icmp ne i32 %120, 9
  br i1 %121, label %133, label %122

122:                                              ; preds = %116
  %123 = load ptr, ptr %7, align 8, !tbaa !21
  %124 = load ptr, ptr %8, align 8, !tbaa !6
  %125 = load i32, ptr %12, align 4, !tbaa !11
  %126 = call i32 @BIO_write(ptr noundef %123, ptr noundef %124, i32 noundef %125)
  %127 = load i32, ptr %12, align 4, !tbaa !11
  %128 = icmp ne i32 %126, %127
  br i1 %128, label %133, label %129

129:                                              ; preds = %122
  %130 = load ptr, ptr %7, align 8, !tbaa !21
  %131 = call i32 @BIO_write(ptr noundef %130, ptr noundef @.str.12, i32 noundef 6)
  %132 = icmp ne i32 %131, 6
  br i1 %132, label %133, label %134

133:                                              ; preds = %129, %122, %116
  br label %138

134:                                              ; preds = %129
  %135 = load i32, ptr %14, align 4, !tbaa !11
  %136 = load i32, ptr %16, align 4, !tbaa !11
  %137 = add nsw i32 %135, %136
  store i32 %137, ptr %6, align 4
  store i32 1, ptr %20, align 4
  br label %146

138:                                              ; preds = %133, %115, %92, %62, %56, %38
  %139 = load ptr, ptr %17, align 8, !tbaa !6
  %140 = icmp ne ptr %139, null
  br i1 %140, label %141, label %144

141:                                              ; preds = %138
  %142 = load ptr, ptr %17, align 8, !tbaa !6
  call void @OPENSSL_cleanse(ptr noundef %142, i64 noundef 8192)
  %143 = load ptr, ptr %17, align 8, !tbaa !6
  call void @free(ptr noundef %143) #7
  br label %144

144:                                              ; preds = %141, %138
  %145 = load i32, ptr %19, align 4, !tbaa !11
  call void @ERR_put_error(i32 noundef 9, i32 noundef 0, i32 noundef %145, ptr noundef @.str.8, i32 noundef 575)
  store i32 0, ptr %6, align 4
  store i32 1, ptr %20, align 4
  br label %146

146:                                              ; preds = %144, %134
  call void @llvm.lifetime.end.p0(i64 4, ptr %19) #7
  call void @llvm.lifetime.end.p0(i64 96, ptr %18) #7
  call void @llvm.lifetime.end.p0(i64 8, ptr %17) #7
  call void @llvm.lifetime.end.p0(i64 4, ptr %16) #7
  call void @llvm.lifetime.end.p0(i64 4, ptr %15) #7
  call void @llvm.lifetime.end.p0(i64 4, ptr %14) #7
  call void @llvm.lifetime.end.p0(i64 4, ptr %13) #7
  call void @llvm.lifetime.end.p0(i64 4, ptr %12) #7
  %147 = load i32, ptr %6, align 4
  ret i32 %147
}