; Function Attrs: nounwind uwtable
define hidden i32 @PEM_write_bio(ptr noundef %0, ptr noundef %1, ptr noundef %2, ptr noundef %3, i64 noundef %4) local_unnamed_addr #0 {
  %6 = alloca i32, align 4
  %7 = alloca %struct.evp_encode_ctx_st, align 4
  call void @llvm.lifetime.start.p0(i64 4, ptr nonnull %6) #12
  call void @llvm.lifetime.start.p0(i64 96, ptr nonnull %7) #12
  call void @EVP_EncodeInit(ptr noundef nonnull %7) #12
  %8 = call i64 @strlen(ptr noundef nonnull dereferenceable(1) %1) #13
  %9 = trunc i64 %8 to i32
  %10 = call i32 @BIO_write(ptr noundef %0, ptr noundef nonnull @.str.11, i32 noundef 11) #12
  %.not = icmp eq i32 %10, 11
  br i1 %.not, label %11, label %.thread

11:                                               ; preds = %5
  %12 = call i32 @BIO_write(ptr noundef %0, ptr noundef nonnull %1, i32 noundef %9) #12
  %.not55 = icmp eq i32 %12, %9
  br i1 %.not55, label %13, label %.thread

13:                                               ; preds = %11
  %14 = call i32 @BIO_write(ptr noundef %0, ptr noundef nonnull @.str.12, i32 noundef 6) #12
  %.not56 = icmp eq i32 %14, 6
  br i1 %.not56, label %15, label %.thread

15:                                               ; preds = %13
  %16 = call i64 @strlen(ptr noundef nonnull dereferenceable(1) %2) #13
  %17 = trunc i64 %16 to i32
  %18 = icmp sgt i32 %17, 0
  br i1 %18, label %19, label %23

19:                                               ; preds = %15
  %20 = call i32 @BIO_write(ptr noundef %0, ptr noundef nonnull %2, i32 noundef %17) #12
  %.not57 = icmp eq i32 %20, %17
  br i1 %.not57, label %21, label %.thread

21:                                               ; preds = %19
  %22 = call i32 @BIO_write(ptr noundef %0, ptr noundef nonnull @.str.5, i32 noundef 1) #12
  %.not58 = icmp eq i32 %22, 1
  br i1 %.not58, label %23, label %.thread

23:                                               ; preds = %21, %15
  %24 = call noalias dereferenceable_or_null(8192) ptr @malloc(i64 noundef 8192) #14
  %25 = icmp eq ptr %24, null
  br i1 %25, label %.thread, label %.preheader

.preheader:                                       ; preds = %23
  %26 = icmp sgt i64 %4, 0
  br i1 %26, label %.lr.ph, label %._crit_edge

.lr.ph:                                           ; preds = %.preheader, %35
  %.04673 = phi i32 [ %39, %35 ], [ 0, %.preheader ]
  %.04772 = phi i32 [ %37, %35 ], [ 0, %.preheader ]
  %.04971 = phi i64 [ %38, %35 ], [ %4, %.preheader ]
  %27 = call i64 @llvm.umin.i64(i64 %.04971, i64 5120)
  %28 = trunc nuw nsw i64 %27 to i32
  %29 = zext nneg i32 %.04673 to i64
  %30 = getelementptr inbounds nuw i8, ptr %3, i64 %29
  call void @EVP_EncodeUpdate(ptr noundef nonnull %7, ptr noundef nonnull %24, ptr noundef nonnull %6, ptr noundef %30, i64 noundef %27) #12
  %31 = load i32, ptr %6, align 4, !tbaa !16
  %.not63 = icmp eq i32 %31, 0
  br i1 %.not63, label %35, label %32

32:                                               ; preds = %.lr.ph
  %33 = call i32 @BIO_write(ptr noundef %0, ptr noundef nonnull %24, i32 noundef %31) #12
  %34 = load i32, ptr %6, align 4, !tbaa !16
  %.not64 = icmp eq i32 %33, %34
  br i1 %.not64, label %35, label %.loopexit

35:                                               ; preds = %32, %.lr.ph
  %36 = phi i32 [ %33, %32 ], [ 0, %.lr.ph ]
  %37 = add nsw i32 %36, %.04772
  %38 = sub nsw i64 %.04971, %27
  %39 = add nuw nsw i32 %.04673, %28
  %40 = icmp sgt i64 %38, 0
  br i1 %40, label %.lr.ph, label %._crit_edge, !llvm.loop !28

._crit_edge:                                      ; preds = %35, %.preheader
  %.047.lcssa = phi i32 [ 0, %.preheader ], [ %37, %35 ]
  call void @EVP_EncodeFinal(ptr noundef nonnull %7, ptr noundef nonnull %24, ptr noundef nonnull %6) #12
  %41 = load i32, ptr %6, align 4, !tbaa !16
  %42 = icmp sgt i32 %41, 0
  br i1 %42, label %43, label %46

43:                                               ; preds = %._crit_edge
  %44 = call i32 @BIO_write(ptr noundef %0, ptr noundef nonnull %24, i32 noundef %41) #12
  %45 = load i32, ptr %6, align 4, !tbaa !16
  %.not59 = icmp eq i32 %44, %45
  br i1 %.not59, label %46, label %.loopexit

46:                                               ; preds = %43, %._crit_edge
  call void @OPENSSL_cleanse(ptr noundef nonnull %24, i64 noundef 8192) #12
  call void @free(ptr noundef nonnull %24) #12
  %47 = call i32 @BIO_write(ptr noundef %0, ptr noundef nonnull @.str.13, i32 noundef 9) #12
  %.not60 = icmp eq i32 %47, 9
  br i1 %.not60, label %48, label %.thread

48:                                               ; preds = %46
  %49 = call i32 @BIO_write(ptr noundef %0, ptr noundef nonnull %1, i32 noundef %9) #12
  %.not61 = icmp eq i32 %49, %9
  br i1 %.not61, label %50, label %.thread

50:                                               ; preds = %48
  %51 = call i32 @BIO_write(ptr noundef %0, ptr noundef nonnull @.str.12, i32 noundef 6) #12
  %.not62 = icmp eq i32 %51, 6
  br i1 %.not62, label %52, label %.thread

52:                                               ; preds = %50
  %53 = load i32, ptr %6, align 4, !tbaa !16
  %54 = add nsw i32 %53, %.047.lcssa
  br label %55

.loopexit:                                        ; preds = %32, %43
  call void @OPENSSL_cleanse(ptr noundef nonnull %24, i64 noundef 8192) #12
  call void @free(ptr noundef nonnull %24) #12
  br label %.thread

.thread:                                          ; preds = %23, %50, %48, %46, %21, %19, %13, %11, %5, %.loopexit
  %.069 = phi i32 [ 7, %.loopexit ], [ 65, %23 ], [ 7, %50 ], [ 7, %48 ], [ 7, %46 ], [ 7, %21 ], [ 7, %19 ], [ 7, %13 ], [ 7, %11 ], [ 7, %5 ]
  call void @ERR_put_error(i32 noundef 9, i32 noundef 0, i32 noundef %.069, ptr noundef nonnull @.str.8, i32 noundef 575) #12
  br label %55

55:                                               ; preds = %.thread, %52
  %.048 = phi i32 [ 0, %.thread ], [ %54, %52 ]
  call void @llvm.lifetime.end.p0(i64 96, ptr nonnull %7) #12
  call void @llvm.lifetime.end.p0(i64 4, ptr nonnull %6) #12
  ret i32 %.048
}